target datalayout = "e-m:e-p270:32:32-p271:32:32-p272:64:64-i64:64-i128:128-f80:128-n8:16:32:64-S128"
target triple = "x86_64-pc-linux-gnu"

%struct.bufferevent = type { ptr, ptr, %struct.event, %struct.event, ptr, ptr, %struct.event_watermark, %struct.event_watermark, ptr, ptr, ptr, ptr, %struct.timeval, %struct.timeval, i16 }
%struct.event = type { %struct.event_callback, %union.anon.0, i32, i16, i16, ptr, %union.anon.2, %struct.timeval }
%union.anon.0 = type { %struct.anon.1 }
%struct.anon.1 = type { ptr, ptr }
%union.anon.2 = type { %struct.anon.3 }
%struct.anon.3 = type { %struct.anon.4, %struct.timeval }
%struct.anon.4 = type { ptr, ptr }
%struct.event_watermark = type { i64, i64 }
%struct.timeval = type { i64, i64 }
%struct.event_callback = type { %struct.anon, i16, i8, i8, %union.anon, ptr }
%struct.anon = type { ptr, ptr }
%union.anon = type { ptr }

; Function Attrs: inlinehint nounwind uwtable
define internal void @bufferevent_trigger_nolock_(ptr noundef %0, i16 noundef signext %1, i32 noundef %2) #3 {
  %4 = alloca ptr, align 8
  %5 = alloca i16, align 2
  %6 = alloca i32, align 4
  store ptr %0, ptr %4, align 8
  store i16 %1, ptr %5, align 2
  store i32 %2, ptr %6, align 4
  %7 = load i16, ptr %5, align 2
  %8 = sext i16 %7 to i32
  %9 = and i32 %8, 2
  %10 = icmp ne i32 %9, 0
  br i1 %10, label %11, label %28

11:                                               ; preds = %3
  %12 = load i32, ptr %6, align 4
  %13 = and i32 %12, 65536
  %14 = icmp ne i32 %13, 0
  br i1 %14, label %25, label %15

15:                                               ; preds = %11
  %16 = load ptr, ptr %4, align 8
  %17 = getelementptr inbounds nuw %struct.bufferevent, ptr %16, i32 0, i32 4
  %18 = load ptr, ptr %17, align 8
  %19 = call i64 @evbuffer_get_length(ptr noundef %18)
  %20 = load ptr, ptr %4, align 8
  %21 = getelementptr inbounds nuw %struct.bufferevent, ptr %20, i32 0, i32 6
  %22 = getelementptr inbounds nuw %struct.event_watermark, ptr %21, i32 0, i32 0
  %23 = load i64, ptr %22, align 8
  %24 = icmp uge i64 %19, %23
  br i1 %24, label %25, label %28

25:                                               ; preds = %15, %11
  %26 = load ptr, ptr %4, align 8
  %27 = load i32, ptr %6, align 4
  call void @bufferevent_run_readcb_(ptr noundef %26, i32 noundef %27)
  br label %28

28:                                               ; preds = %25, %15, %3
  %29 = load i16, ptr %5, align 2
  %30 = sext i16 %29 to i32
  %31 = and i32 %30, 4
  %32 = icmp ne i32 %31, 0
  br i1 %32, label %33, label %50

33:                                               ; preds = %28
  %34 = load i32, ptr %6, align 4
  %35 = and i32 %34, 65536
  %36 = icmp ne i32 %35, 0
  br i1 %36, label %47, label %37

37:                                               ; preds = %33
  %38 = load ptr, ptr %4, align 8
  %39 = getelementptr inbounds nuw %struct.bufferevent, ptr %38, i32 0, i32 5
  %40 = load ptr, ptr %39, align 8
  %41 = call i64 @evbuffer_get_length(ptr noundef %40)
  %42 = load ptr, ptr %4, align 8
  %43 = getelementptr inbounds nuw %struct.bufferevent, ptr %42, i32 0, i32 7
  %44 = getelementptr inbounds nuw %struct.event_watermark, ptr %43, i32 0, i32 0
  %45 = load i64, ptr %44, align 8
  %46 = icmp ule i64 %41, %45
  br i1 %46, label %47, label %50

47:                                               ; preds = %37, %33
  %48 = load ptr, ptr %4, align 8
  %49 = load i32, ptr %6, align 4
  call void @bufferevent_run_writecb_(ptr noundef %48, i32 noundef %49)
  br label %50

50:                                               ; preds = %47, %37, %28
  ret void
}

; Function Attrs: nounwind uwtable
define internal void @be_pair_transfer(ptr noundef %0, ptr noundef %1, i32 noundef %2) #0 {
  %4 = alloca ptr, align 8
  %5 = alloca ptr, align 8
  %6 = alloca i32, align 4
  %7 = alloca i64, align 8
  %8 = alloca i64, align 8
  store ptr %0, ptr %4, align 8
  store ptr %1, ptr %5, align 8
  store i32 %2, ptr %6, align 4
  call void @llvm.lifetime.start.p0(i64 8, ptr %7) #4
  call void @llvm.lifetime.start.p0(i64 8, ptr %8) #4
  %9 = load ptr, ptr %4, align 8
  %10 = getelementptr inbounds nuw %struct.bufferevent, ptr %9, i32 0, i32 5
  %11 = load ptr, ptr %10, align 8
  %12 = call i32 @evbuffer_unfreeze(ptr noundef %11, i32 noundef 1)
  %13 = load ptr, ptr %5, align 8
  %14 = getelementptr inbounds nuw %struct.bufferevent, ptr %13, i32 0, i32 4
  %15 = load ptr, ptr %14, align 8
  %16 = call i32 @evbuffer_unfreeze(ptr noundef %15, i32 noundef 0)
  %17 = load ptr, ptr %5, align 8
  %18 = getelementptr inbounds nuw %struct.bufferevent, ptr %17, i32 0, i32 6
  %19 = getelementptr inbounds nuw %struct.event_watermark, ptr %18, i32 0, i32 1
  %20 = load i64, ptr %19, align 8
  %21 = icmp ne i64 %20, 0
  br i1 %21, label %22, label %65

22:                                               ; preds = %3
  %23 = load ptr, ptr %5, align 8
  %24 = getelementptr inbounds nuw %struct.bufferevent, ptr %23, i32 0, i32 4
  %25 = load ptr, ptr %24, align 8
  %26 = call i64 @evbuffer_get_length(ptr noundef %25)
  store i64 %26, ptr %7, align 8
  %27 = load i64, ptr %7, align 8
  %28 = load ptr, ptr %5, align 8
  %29 = getelementptr inbounds nuw %struct.bufferevent, ptr %28, i32 0, i32 6
  %30 = getelementptr inbounds nuw %struct.event_watermark, ptr %29, i32 0, i32 1
  %31 = load i64, ptr %30, align 8
  %32 = icmp ult i64 %27, %31
  br i1 %32, label %33, label %48

33:                                               ; preds = %22
  %34 = load ptr, ptr %5, align 8
  %35 = getelementptr inbounds nuw %struct.bufferevent, ptr %34, i32 0, i32 6
  %36 = getelementptr inbounds nuw %struct.event_watermark, ptr %35, i32 0, i32 1
  %37 = load i64, ptr %36, align 8
  %38 = load i64, ptr %7, align 8
  %39 = sub i64 %37, %38
  store i64 %39, ptr %8, align 8
  %40 = load ptr, ptr %4, align 8
  %41 = getelementptr inbounds nuw %struct.bufferevent, ptr %40, i32 0, i32 5
  %42 = load ptr, ptr %41, align 8
  %43 = load ptr, ptr %5, align 8
  %44 = getelementptr inbounds nuw %struct.bufferevent, ptr %43, i32 0, i32 4
  %45 = load ptr, ptr %44, align 8
  %46 = load i64, ptr %8, align 8
  %47 = call i32 @evbuffer_remove_buffer(ptr noundef %42, ptr noundef %45, i64 noundef %46)
  br label %64

48:                                               ; preds = %22
  %49 = load i32, ptr %6, align 4
  %50 = icmp ne i32 %49, 0
  br i1 %50, label %52, label %51

51:                                               ; preds = %48
  br label %137

52:                                               ; preds = %48
  %53 = load ptr, ptr %4, align 8
  %54 = getelementptr inbounds nuw %struct.bufferevent, ptr %53, i32 0, i32 5
  %55 = load ptr, ptr %54, align 8
  %56 = call i64 @evbuffer_get_length(ptr noundef %55)
  store i64 %56, ptr %8, align 8
  %57 = load ptr, ptr %5, align 8
  %58 = getelementptr inbounds nuw %struct.bufferevent, ptr %57, i32 0, i32 4
  %59 = load ptr, ptr %58, align 8
  %60 = load ptr, ptr %4, align 8
  %61 = getelementptr inbounds nuw %struct.bufferevent, ptr %60, i32 0, i32 5
  %62 = load ptr, ptr %61, align 8
  %63 = call i32 @evbuffer_add_buffer(ptr noundef %59, ptr noundef %62)
  br label %64

64:                                               ; preds = %52, %33
  br label %77

65:                                               ; preds = %3
  %66 = load ptr, ptr %4, align 8
  %67 = getelementptr inbounds nuw %struct.bufferevent, ptr %66, i32 0, i32 5
  %68 = load ptr, ptr %67, align 8
  %69 = call i64 @evbuffer_get_length(ptr noundef %68)
  store i64 %69, ptr %8, align 8
  %70 = load ptr, ptr %5, align 8
  %71 = getelementptr inbounds nuw %struct.bufferevent, ptr %70, i32 0, i32 4
  %72 = load ptr, ptr %71, align 8
  %73 = load ptr, ptr %4, align 8
  %74 = getelementptr inbounds nuw %struct.bufferevent, ptr %73, i32 0, i32 5
  %75 = load ptr, ptr %74, align 8
  %76 = call i32 @evbuffer_add_buffer(ptr noundef %72, ptr noundef %75)
  br label %77

77:                                               ; preds = %65, %64
  %78 = load i64, ptr %8, align 8
  %79 = icmp ne i64 %78, 0
  br i1 %79, label %80, label %134

80:                                               ; preds = %77
  br label %81

81:                                               ; preds = %80
  %82 = load ptr, ptr %5, align 8
  %83 = getelementptr inbounds nuw %struct.bufferevent, ptr %82, i32 0, i32 12
  %84 = getelementptr inbounds nuw %struct.timeval, ptr %83, i32 0, i32 0
  %85 = load i64, ptr %84, align 8
  %86 = icmp ne i64 %85, 0
  br i1 %86, label %93, label %87

87:                                               ; preds = %81
  %88 = load ptr, ptr %5, align 8
  %89 = getelementptr inbounds nuw %struct.bufferevent, ptr %88, i32 0, i32 12
  %90 = getelementptr inbounds nuw %struct.timeval, ptr %89, i32 0, i32 1
  %91 = load i64, ptr %90, align 8
  %92 = icmp ne i64 %91, 0
  br i1 %92, label %93, label %99

93:                                               ; preds = %87, %81
  %94 = load ptr, ptr %5, align 8
  %95 = getelementptr inbounds nuw %struct.bufferevent, ptr %94, i32 0, i32 2
  %96 = load ptr, ptr %5, align 8
  %97 = getelementptr inbounds nuw %struct.bufferevent, ptr %96, i32 0, i32 12
  %98 = call i32 @event_add(ptr noundef %95, ptr noundef %97)
  br label %99

99:                                               ; preds = %93, %87
  br label %100

100:                                              ; preds = %99
  br label %101

101:                                              ; preds = %100
  %102 = load ptr, ptr %5, align 8
  %103 = getelementptr inbounds nuw %struct.bufferevent, ptr %102, i32 0, i32 5
  %104 = load ptr, ptr %103, align 8
  %105 = call i64 @evbuffer_get_length(ptr noundef %104)
  %106 = icmp ne i64 %105, 0
  br i1 %106, label %107, label %129

107:                                              ; preds = %101
  br label %108

108:                                              ; preds = %107
  %109 = load ptr, ptr %5, align 8
  %110 = getelementptr inbounds nuw %struct.bufferevent, ptr %109, i32 0, i32 13
  %111 = getelementptr inbounds nuw %struct.timeval, ptr %110, i32 0, i32 0
  %112 = load i64, ptr %111, align 8
  %113 = icmp ne i64 %112, 0
  br i1 %113, label %120, label %114

114:                                              ; preds = %108
  %115 = load ptr, ptr %5, align 8
  %116 = getelementptr inbounds nuw %struct.bufferevent, ptr %115, i32 0, i32 13
  %117 = getelementptr inbounds nuw %struct.timeval, ptr %116, i32 0, i32 1
  %118 = load i64, ptr %117, align 8
  %119 = icmp ne i64 %118, 0
  br i1 %119, label %120, label %126

120:                                              ; preds = %114, %108
  %121 = load ptr, ptr %5, align 8
  %122 = getelementptr inbounds nuw %struct.bufferevent, ptr %121, i32 0, i32 3
  %123 = load ptr, ptr %5, align 8
  %124 = getelementptr inbounds nuw %struct.bufferevent, ptr %123, i32 0, i32 13
  %125 = call i32 @event_add(ptr noundef %122, ptr noundef %124)
  br label %126

126:                                              ; preds = %120, %114
  br label %127

127:                                              ; preds = %126
  br label %128

128:                                              ; preds = %127
  br label %133

129:                                              ; preds = %101
  %130 = load ptr, ptr %5, align 8
  %131 = getelementptr inbounds nuw %struct.bufferevent, ptr %130, i32 0, i32 3
  %132 = call i32 @event_del(ptr noundef %131)
  br label %133

133:                                              ; preds = %129, %128
  br label %134

134:                                              ; preds = %133, %77
  %135 = load ptr, ptr %5, align 8
  call void @bufferevent_trigger_nolock_(ptr noundef %135, i16 noundef signext 2, i32 noundef 0)
  %136 = load ptr, ptr %4, align 8
  call void @bufferevent_trigger_nolock_(ptr noundef %136, i16 noundef signext 4, i32 noundef 0)
  br label %137

137:                                              ; preds = %134, %51
  %138 = load ptr, ptr %4, align 8
  %139 = getelementptr inbounds nuw %struct.bufferevent, ptr %138, i32 0, i32 5
  %140 = load ptr, ptr %139, align 8
  %141 = call i32 @evbuffer_freeze(ptr noundef %140, i32 noundef 1)
  %142 = load ptr, ptr %5, align 8
  %143 = getelementptr inbounds nuw %struct.bufferevent, ptr %142, i32 0, i32 4
  %144 = load ptr, ptr %143, align 8
  %145 = call i32 @evbuffer_freeze(ptr noundef %144, i32 noundef 0)
  call void @llvm.lifetime.end.p0(i64 8, ptr %8) #4
  call void @llvm.lifetime.end.p0(i64 8, ptr %7) #4
  ret void
}