; Function Attrs: nounwind uwtable
define internal fastcc void @be_pair_transfer(ptr noundef %0, ptr noundef %1, i32 noundef range(i32 0, 2) %2) unnamed_addr #0 {
  %4 = getelementptr inbounds nuw i8, ptr %0, i64 264
  %5 = load ptr, ptr %4, align 8
  %6 = tail call i32 @evbuffer_unfreeze(ptr noundef %5, i32 noundef 1) #4
  %7 = getelementptr inbounds nuw i8, ptr %1, i64 256
  %8 = load ptr, ptr %7, align 8
  %9 = tail call i32 @evbuffer_unfreeze(ptr noundef %8, i32 noundef 0) #4
  %10 = getelementptr inbounds nuw i8, ptr %1, i64 280
  %11 = load i64, ptr %10, align 8
  %.not = icmp eq i64 %11, 0
  br i1 %.not, label %29, label %12

12:                                               ; preds = %3
  %13 = load ptr, ptr %7, align 8
  %14 = tail call i64 @evbuffer_get_length(ptr noundef %13) #4
  %15 = load i64, ptr %10, align 8
  %16 = icmp ult i64 %14, %15
  br i1 %16, label %17, label %22

17:                                               ; preds = %12
  %18 = sub nuw i64 %15, %14
  %19 = load ptr, ptr %4, align 8
  %20 = load ptr, ptr %7, align 8
  %21 = tail call i32 @evbuffer_remove_buffer(ptr noundef %19, ptr noundef %20, i64 noundef %18) #4
  br label %35

22:                                               ; preds = %12
  %.not34 = icmp eq i32 %2, 0
  br i1 %.not34, label %bufferevent_trigger_nolock_.exit41, label %23

23:                                               ; preds = %22
  %24 = load ptr, ptr %4, align 8
  %25 = tail call i64 @evbuffer_get_length(ptr noundef %24) #4
  %26 = load ptr, ptr %7, align 8
  %27 = load ptr, ptr %4, align 8
  %28 = tail call i32 @evbuffer_add_buffer(ptr noundef %26, ptr noundef %27) #4
  br label %35

29:                                               ; preds = %3
  %30 = load ptr, ptr %4, align 8
  %31 = tail call i64 @evbuffer_get_length(ptr noundef %30) #4
  %32 = load ptr, ptr %7, align 8
  %33 = load ptr, ptr %4, align 8
  %34 = tail call i32 @evbuffer_add_buffer(ptr noundef %32, ptr noundef %33) #4
  br label %35

35:                                               ; preds = %17, %23, %29
  %.0 = phi i64 [ %18, %17 ], [ %25, %23 ], [ %31, %29 ]
  %.not35 = icmp eq i64 %.0, 0
  br i1 %.not35, label %61, label %36

36:                                               ; preds = %35
  %37 = getelementptr inbounds nuw i8, ptr %1, i64 336
  %38 = load i64, ptr %37, align 8
  %.not36 = icmp eq i64 %38, 0
  br i1 %.not36, label %39, label %42

39:                                               ; preds = %36
  %40 = getelementptr inbounds nuw i8, ptr %1, i64 344
  %41 = load i64, ptr %40, align 8
  %.not37 = icmp eq i64 %41, 0
  br i1 %.not37, label %45, label %42

42:                                               ; preds = %39, %36
  %43 = getelementptr inbounds nuw i8, ptr %1, i64 16
  %44 = tail call i32 @event_add(ptr noundef nonnull %43, ptr noundef nonnull %37) #4
  br label %45

45:                                               ; preds = %42, %39
  %46 = getelementptr inbounds nuw i8, ptr %1, i64 264
  %47 = load ptr, ptr %46, align 8
  %48 = tail call i64 @evbuffer_get_length(ptr noundef %47) #4
  %.not38 = icmp eq i64 %48, 0
  br i1 %.not38, label %58, label %49

49:                                               ; preds = %45
  %50 = getelementptr inbounds nuw i8, ptr %1, i64 352
  %51 = load i64, ptr %50, align 8
  %.not39 = icmp eq i64 %51, 0
  br i1 %.not39, label %52, label %55

52:                                               ; preds = %49
  %53 = getelementptr inbounds nuw i8, ptr %1, i64 360
  %54 = load i64, ptr %53, align 8
  %.not40 = icmp eq i64 %54, 0
  br i1 %.not40, label %61, label %55

55:                                               ; preds = %52, %49
  %56 = getelementptr inbounds nuw i8, ptr %1, i64 136
  %57 = tail call i32 @event_add(ptr noundef nonnull %56, ptr noundef nonnull %50) #4
  br label %61

58:                                               ; preds = %45
  %59 = getelementptr inbounds nuw i8, ptr %1, i64 136
  %60 = tail call i32 @event_del(ptr noundef nonnull %59) #4
  br label %61

61:                                               ; preds = %58, %55, %52, %35
  %62 = load ptr, ptr %7, align 8
  %63 = tail call i64 @evbuffer_get_length(ptr noundef %62) #4
  %64 = getelementptr inbounds nuw i8, ptr %1, i64 272
  %65 = load i64, ptr %64, align 8
  %.not11.i = icmp ult i64 %63, %65
  br i1 %.not11.i, label %bufferevent_trigger_nolock_.exit, label %66

66:                                               ; preds = %61
  tail call void @bufferevent_run_readcb_(ptr noundef nonnull %1, i32 noundef 0) #4
  br label %bufferevent_trigger_nolock_.exit

bufferevent_trigger_nolock_.exit:                 ; preds = %61, %66
  %67 = load ptr, ptr %4, align 8
  %68 = tail call i64 @evbuffer_get_length(ptr noundef %67) #4
  %69 = getelementptr inbounds nuw i8, ptr %0, i64 288
  %70 = load i64, ptr %69, align 8
  %.not13.i = icmp ugt i64 %68, %70
  br i1 %.not13.i, label %bufferevent_trigger_nolock_.exit41, label %71

71:                                               ; preds = %bufferevent_trigger_nolock_.exit
  tail call void @bufferevent_run_writecb_(ptr noundef nonnull %0, i32 noundef 0) #4
  br label %bufferevent_trigger_nolock_.exit41

bufferevent_trigger_nolock_.exit41:               ; preds = %71, %bufferevent_trigger_nolock_.exit, %22
  %72 = load ptr, ptr %4, align 8
  %73 = tail call i32 @evbuffer_freeze(ptr noundef %72, i32 noundef 1) #4
  %74 = load ptr, ptr %7, align 8
  %75 = tail call i32 @evbuffer_freeze(ptr noundef %74, i32 noundef 0) #4
  ret void
}